target datalayout = "e-m:e-p270:32:32-p271:32:32-p272:64:64-i64:64-i128:128-f80:128-n8:16:32:64-S128"
target triple = "x86_64-pc-linux-gnu"

%struct.thpool_ = type { ptr, i32, i32, %union.pthread_mutex_t, %union.pthread_cond_t, %struct.jobqueue }
%union.pthread_mutex_t = type { %struct.__pthread_mutex_s }
%struct.__pthread_mutex_s = type { i32, i32, i32, i32, i32, i16, i16, %struct.__pthread_internal_list }
%struct.__pthread_internal_list = type { ptr, ptr }
%union.pthread_cond_t = type { %struct.__pthread_cond_s }
%struct.__pthread_cond_s = type { %union.__atomic_wide_counter, %union.__atomic_wide_counter, [2 x i32], [2 x i32], i32, i32, [2 x i32] }
%union.__atomic_wide_counter = type { i64 }
%struct.jobqueue = type { %union.pthread_mutex_t, ptr, ptr, ptr, i32 }

; Function Attrs: nounwind uwtable
define dso_local void @thpool_wait(ptr noundef %0) #0 {
  %2 = alloca ptr, align 8
  store ptr %0, ptr %2, align 8
  %3 = load ptr, ptr %2, align 8
  %4 = getelementptr inbounds %struct.thpool_, ptr %3, i32 0, i32 3
  %5 = call i32 @pthread_mutex_lock(ptr noundef %4) #8
  br label %6

6:                                                ; preds = %19, %1
  %7 = load ptr, ptr %2, align 8
  %8 = getelementptr inbounds %struct.thpool_, ptr %7, i32 0, i32 5
  %9 = getelementptr inbounds %struct.jobqueue, ptr %8, i32 0, i32 4
  %10 = load i32, ptr %9, align 8
  %11 = icmp ne i32 %10, 0
  br i1 %11, label %17, label %12

12:                                               ; preds = %6
  %13 = load ptr, ptr %2, align 8
  %14 = getelementptr inbounds %struct.thpool_, ptr %13, i32 0, i32 2
  %15 = load volatile i32, ptr %14, align 4
  %16 = icmp ne i32 %15, 0
  br label %17

17:                                               ; preds = %12, %6
  %18 = phi i1 [ true, %6 ], [ %16, %12 ]
  br i1 %18, label %19, label %25

19:                                               ; preds = %17
  %20 = load ptr, ptr %2, align 8
  %21 = getelementptr inbounds %struct.thpool_, ptr %20, i32 0, i32 4
  %22 = load ptr, ptr %2, align 8
  %23 = getelementptr inbounds %struct.thpool_, ptr %22, i32 0, i32 3
  %24 = call i32 @pthread_cond_wait(ptr noundef %21, ptr noundef %23)
  br label %6

25:                                               ; preds = %17
  %26 = load ptr, ptr %2, align 8
  %27 = getelementptr inbounds %struct.thpool_, ptr %26, i32 0, i32 3
  %28 = call i32 @pthread_mutex_unlock(ptr noundef %27) #8
  ret void
}