; Function Attrs: nounwind uwtable
define dso_local void @thpool_wait(ptr noundef %0) local_unnamed_addr #0 {
  %2 = getelementptr inbounds i8, ptr %0, i64 16
  %3 = tail call i32 @pthread_mutex_lock(ptr noundef nonnull %2) #14
  %4 = getelementptr inbounds i8, ptr %0, i64 12
  %5 = getelementptr inbounds i8, ptr %0, i64 168
  %6 = getelementptr inbounds i8, ptr %0, i64 56
  br label %7

7:                                                ; preds = %.critedge, %1
  %8 = load i32, ptr %5, align 8
  %.not = icmp eq i32 %8, 0
  br i1 %.not, label %9, label %.critedge

9:                                                ; preds = %7
  %10 = load volatile i32, ptr %4, align 4
  %.not6 = icmp eq i32 %10, 0
  br i1 %.not6, label %12, label %.critedge

.critedge:                                        ; preds = %7, %9
  %11 = tail call i32 @pthread_cond_wait(ptr noundef nonnull %6, ptr noundef nonnull %2) #14
  br label %7

12:                                               ; preds = %9
  %13 = tail call i32 @pthread_mutex_unlock(ptr noundef nonnull %2) #14
  ret void
}